; Function Attrs: mustprogress nofree norecurse nosync nounwind willreturn memory(read, inaccessiblemem: none) uwtable
define i32 @Fxu_HeapDoubleReadMaxWeight(ptr noundef readonly captures(none) %0) local_unnamed_addr #10 {
  %2 = getelementptr inbounds nuw i8, ptr %0, i64 8
  %3 = load i32, ptr %2, align 8, !tbaa !13
  %4 = icmp eq i32 %3, 0
  br i1 %4, label %11, label %5

5:                                                ; preds = %1
  %6 = load ptr, ptr %0, align 8, !tbaa !10
  %7 = getelementptr inbounds nuw i8, ptr %6, i64 8
  %8 = load ptr, ptr %7, align 8, !tbaa !11
  %9 = getelementptr inbounds nuw i8, ptr %8, i64 8
  %10 = load i32, ptr %9, align 8, !tbaa !17
  br label %11

11:                                               ; preds = %1, %5
  %.0 = phi i32 [ %10, %5 ], [ -1, %1 ]
  ret i32 %.0
}